; Function Attrs: nofree norecurse nosync nounwind memory(argmem: write) uwtable
define internal void @pred8x8l_128_dc_14_c(ptr noundef writeonly captures(none) %0, i32 %1, i32 %2, i64 noundef %3) #4 {
  %5 = shl i64 %3, 31
  %6 = ashr i64 %5, 32
  br label %7

7:                                                ; preds = %4, %7
  %.09 = phi i32 [ 0, %4 ], [ %10, %7 ]
  %.078 = phi ptr [ %0, %4 ], [ %9, %7 ]
  store i64 2305878194122661888, ptr %.078, align 8, !tbaa !8
  %8 = getelementptr inbounds nuw i8, ptr %.078, i64 8
  store i64 2305878194122661888, ptr %8, align 8, !tbaa !8
  %9 = getelementptr inbounds i16, ptr %.078, i64 %6
  %10 = add nuw nsw i32 %.09, 1
  %exitcond.not = icmp eq i32 %10, 8
  br i1 %exitcond.not, label %11, label %7, !llvm.loop !192

11:                                               ; preds = %7
  ret void
}